; Function Attrs: mustprogress nofree norecurse nosync nounwind willreturn memory(write, argmem: readwrite, inaccessiblemem: none) uwtable
define void @_ZN10open_spiel10kuhn_poker9KuhnState10UndoActionEil(ptr nocapture noundef nonnull align 8 dereferenceable(120) %0, i32 noundef %1, i64 noundef %2) unnamed_addr #12 align 2 {
  %4 = getelementptr inbounds nuw i8, ptr %0, i64 32
  %5 = getelementptr inbounds i8, ptr %0, i64 40
  %6 = load ptr, ptr %5, align 8
  %7 = load ptr, ptr %4, align 8
  %8 = ptrtoint ptr %6 to i64
  %9 = ptrtoint ptr %7 to i64
  %10 = sub i64 %8, %9
  %11 = ashr exact i64 %10, 4
  %12 = getelementptr inbounds nuw i8, ptr %0, i64 28
  %13 = load i32, ptr %12, align 4
  %14 = sext i32 %13 to i64
  %.not = icmp ugt i64 %11, %14
  br i1 %.not, label %19, label %15

15:                                               ; preds = %3
  %16 = getelementptr inbounds nuw i8, ptr %0, i64 64
  %17 = load ptr, ptr %16, align 8
  %18 = getelementptr inbounds i32, ptr %17, i64 %2
  store i32 -3, ptr %18, align 4
  %.pre = load ptr, ptr %5, align 8
  br label %31

19:                                               ; preds = %3
  %20 = icmp eq i64 %2, 1
  br i1 %20, label %21, label %29

21:                                               ; preds = %19
  %22 = getelementptr inbounds nuw i8, ptr %0, i64 92
  %23 = load i32, ptr %22, align 4
  %24 = add nsw i32 %23, -1
  store i32 %24, ptr %22, align 4
  %25 = getelementptr inbounds nuw i8, ptr %0, i64 60
  %26 = load i32, ptr %25, align 4
  %27 = icmp eq i32 %1, %26
  br i1 %27, label %28, label %29

28:                                               ; preds = %21
  store i32 -3, ptr %25, align 4
  br label %29

29:                                               ; preds = %21, %28, %19
  %30 = getelementptr inbounds nuw i8, ptr %0, i64 88
  store i32 -3, ptr %30, align 8
  br label %31

31:                                               ; preds = %29, %15
  %32 = phi ptr [ %6, %29 ], [ %.pre, %15 ]
  %33 = getelementptr inbounds i8, ptr %32, i64 -16
  store ptr %33, ptr %5, align 8
  %34 = getelementptr inbounds nuw i8, ptr %0, i64 56
  %35 = load i32, ptr %34, align 8
  %36 = add nsw i32 %35, -1
  store i32 %36, ptr %34, align 8
  ret void
}